target datalayout = "e-m:e-p270:32:32-p271:32:32-p272:64:64-i64:64-i128:128-f80:128-n8:16:32:64-S128"
target triple = "x86_64-pc-linux-gnu"

%struct.AVFilterContext = type { ptr, ptr, ptr, ptr, ptr, i32, ptr, ptr, i32, ptr, ptr, i32, i32, ptr, ptr, ptr, ptr, i32, ptr, i32, i32 }
%struct.SpeechNormalizerContext = type { ptr, double, double, double, double, double, double, double, ptr, %struct.AVChannelLayout, i32, i32, ptr, double, i32, i32, i64, %struct.FFBufQueue, ptr, [2 x ptr] }
%struct.AVChannelLayout = type { i32, i32, %union.anon.1, ptr }
%union.anon.1 = type { i64 }
%struct.FFBufQueue = type { [1024 x ptr], i16, i16 }

; Function Attrs: nounwind uwtable
define internal i32 @process_command(ptr noundef %0, ptr noundef %1, ptr noundef %2, ptr noundef %3, i32 noundef %4, i32 noundef %5) #1 {
  %7 = alloca i32, align 4
  %8 = alloca ptr, align 8
  %9 = alloca ptr, align 8
  %10 = alloca ptr, align 8
  %11 = alloca ptr, align 8
  %12 = alloca i32, align 4
  %13 = alloca i32, align 4
  %14 = alloca ptr, align 8
  %15 = alloca i32, align 4
  %16 = alloca i32, align 4
  %17 = alloca i32, align 4
  store ptr %0, ptr %8, align 8, !tbaa !4
  store ptr %1, ptr %9, align 8, !tbaa !24
  store ptr %2, ptr %10, align 8, !tbaa !24
  store ptr %3, ptr %11, align 8, !tbaa !24
  store i32 %4, ptr %12, align 4, !tbaa !25
  store i32 %5, ptr %13, align 4, !tbaa !25
  call void @llvm.lifetime.start.p0(i64 8, ptr %14) #9
  %18 = load ptr, ptr %8, align 8, !tbaa !4
  %19 = getelementptr inbounds nuw %struct.AVFilterContext, ptr %18, i32 0, i32 9
  %20 = load ptr, ptr %19, align 8, !tbaa !9
  store ptr %20, ptr %14, align 8, !tbaa !22
  call void @llvm.lifetime.start.p0(i64 4, ptr %15) #9
  %21 = load ptr, ptr %14, align 8, !tbaa !22
  %22 = getelementptr inbounds nuw %struct.SpeechNormalizerContext, ptr %21, i32 0, i32 11
  %23 = load i32, ptr %22, align 4, !tbaa !26
  store i32 %23, ptr %15, align 4, !tbaa !25
  call void @llvm.lifetime.start.p0(i64 4, ptr %16) #9
  %24 = load ptr, ptr %8, align 8, !tbaa !4
  %25 = load ptr, ptr %9, align 8, !tbaa !24
  %26 = load ptr, ptr %10, align 8, !tbaa !24
  %27 = load ptr, ptr %11, align 8, !tbaa !24
  %28 = load i32, ptr %12, align 4, !tbaa !25
  %29 = load i32, ptr %13, align 4, !tbaa !25
  %30 = call i32 @ff_filter_process_command(ptr noundef %24, ptr noundef %25, ptr noundef %26, ptr noundef %27, i32 noundef %28, i32 noundef %29)
  store i32 %30, ptr %16, align 4, !tbaa !25
  %31 = load i32, ptr %16, align 4, !tbaa !25
  %32 = icmp slt i32 %31, 0
  br i1 %32, label %33, label %35

33:                                               ; preds = %6
  %34 = load i32, ptr %16, align 4, !tbaa !25
  store i32 %34, ptr %7, align 4
  store i32 1, ptr %17, align 4
  br label %45

35:                                               ; preds = %6
  %36 = load i32, ptr %15, align 4, !tbaa !25
  %37 = load ptr, ptr %14, align 8, !tbaa !22
  %38 = getelementptr inbounds nuw %struct.SpeechNormalizerContext, ptr %37, i32 0, i32 11
  %39 = load i32, ptr %38, align 4, !tbaa !26
  %40 = icmp ne i32 %36, %39
  br i1 %40, label %41, label %44

41:                                               ; preds = %35
  %42 = load ptr, ptr %14, align 8, !tbaa !22
  %43 = getelementptr inbounds nuw %struct.SpeechNormalizerContext, ptr %42, i32 0, i32 13
  store double 1.000000e+00, ptr %43, align 8, !tbaa !34
  br label %44

44:                                               ; preds = %41, %35
  store i32 0, ptr %7, align 4
  store i32 1, ptr %17, align 4
  br label %45

45:                                               ; preds = %44, %33
  call void @llvm.lifetime.end.p0(i64 4, ptr %16) #9
  call void @llvm.lifetime.end.p0(i64 4, ptr %15) #9
  call void @llvm.lifetime.end.p0(i64 8, ptr %14) #9
  %46 = load i32, ptr %7, align 4
  ret i32 %46
}