; Function Attrs: nounwind uwtable
define internal range(i32 -2147483648, 1) i32 @process_command(ptr noundef %0, ptr noundef %1, ptr noundef %2, ptr noundef %3, i32 noundef %4, i32 noundef %5) #1 {
  %7 = getelementptr inbounds nuw i8, ptr %0, i64 72
  %8 = load ptr, ptr %7, align 8, !tbaa !4
  %9 = getelementptr inbounds nuw i8, ptr %8, i64 100
  %10 = load i32, ptr %9, align 4, !tbaa !28
  %11 = tail call i32 @ff_filter_process_command(ptr noundef %0, ptr noundef %1, ptr noundef %2, ptr noundef %3, i32 noundef %4, i32 noundef %5) #11
  %12 = icmp slt i32 %11, 0
  br i1 %12, label %17, label %13

13:                                               ; preds = %6
  %14 = load i32, ptr %9, align 4, !tbaa !28
  %.not = icmp eq i32 %10, %14
  br i1 %.not, label %17, label %15

15:                                               ; preds = %13
  %16 = getelementptr inbounds nuw i8, ptr %8, i64 112
  store double 1.000000e+00, ptr %16, align 8, !tbaa !34
  br label %17

17:                                               ; preds = %13, %15, %6
  %.0 = phi i32 [ %11, %6 ], [ 0, %15 ], [ 0, %13 ]
  ret i32 %.0
}